target datalayout = "e-m:e-p270:32:32-p271:32:32-p272:64:64-i64:64-i128:128-f80:128-n8:16:32:64-S128"
target triple = "x86_64-pc-linux-gnu"

%struct.rb_code_location_struct = type { %struct.rb_code_position_struct, %struct.rb_code_position_struct }
%struct.rb_code_position_struct = type { i32, i32 }
%struct.lex_context = type { i16, [2 x i8] }
%struct.parser_params = type { ptr, ptr, %struct.anon.12, i64, i64, i32, i32, i32, i32, i32, ptr, ptr, ptr, ptr, i32, i32, ptr, i64, ptr, ptr, ptr, ptr, i64, i64, %struct.anon.13, ptr, i32, ptr, i32, i64, %struct.lex_context, ptr, ptr, ptr, i16, i64, i64, i64, i64, i64, i64 }
%struct.anon.12 = type { ptr, ptr, ptr, %struct.parser_string_buffer, ptr, ptr, ptr, ptr, ptr, ptr, i32, i32, i32, i32 }
%struct.parser_string_buffer = type { ptr, ptr }
%struct.anon.13 = type { ptr, i32, i32, i32, i32 }
%struct.RNode = type { i64, %struct.rb_code_location_struct, i32 }
%struct.RNode_OP_ASGN2 = type { %struct.RNode, ptr, ptr, i64, i64, i8, %struct.rb_code_location_struct, %struct.rb_code_location_struct, %struct.rb_code_location_struct }

; Function Attrs: nounwind sspstrong uwtable
define internal i32 @parser_get_node_id(ptr noundef %0) #0 {
  %2 = alloca ptr, align 8
  %3 = alloca i32, align 4
  store ptr %0, ptr %2, align 8, !tbaa !6
  call void @llvm.lifetime.start.p0(i64 4, ptr %3) #25
  %4 = load ptr, ptr %2, align 8, !tbaa !6
  %5 = getelementptr inbounds nuw %struct.parser_params, ptr %4, i32 0, i32 26
  %6 = load i32, ptr %5, align 8, !tbaa !670
  store i32 %6, ptr %3, align 4, !tbaa !14
  %7 = load ptr, ptr %2, align 8, !tbaa !6
  %8 = getelementptr inbounds nuw %struct.parser_params, ptr %7, i32 0, i32 26
  %9 = load i32, ptr %8, align 8, !tbaa !670
  %10 = add nsw i32 %9, 1
  store i32 %10, ptr %8, align 8, !tbaa !670
  %11 = load i32, ptr %3, align 4, !tbaa !14
  call void @llvm.lifetime.end.p0(i64 4, ptr %3) #25
  ret i32 %11
}

; Function Attrs: nounwind sspstrong uwtable
define internal ptr @nd_set_loc(ptr noundef %0, ptr noundef %1) #0 {
  %3 = alloca ptr, align 8
  %4 = alloca ptr, align 8
  store ptr %0, ptr %3, align 8, !tbaa !33
  store ptr %1, ptr %4, align 8, !tbaa !22
  %5 = load ptr, ptr %3, align 8, !tbaa !33
  %6 = getelementptr inbounds nuw %struct.RNode, ptr %5, i32 0, i32 1
  %7 = load ptr, ptr %4, align 8, !tbaa !22
  call void @llvm.memcpy.p0.p0.i64(ptr align 8 %6, ptr align 4 %7, i64 16, i1 false), !tbaa.struct !13
  %8 = load ptr, ptr %3, align 8, !tbaa !33
  %9 = load ptr, ptr %4, align 8, !tbaa !22
  %10 = getelementptr inbounds nuw %struct.rb_code_location_struct, ptr %9, i32 0, i32 0
  %11 = getelementptr inbounds nuw %struct.rb_code_position_struct, ptr %10, i32 0, i32 0
  %12 = load i32, ptr %11, align 4, !tbaa !293
  %13 = sext i32 %12 to i64
  call void @nd_set_line(ptr noundef %8, i64 noundef %13)
  %14 = load ptr, ptr %3, align 8, !tbaa !33
  ret ptr %14
}

; Function Attrs: nounwind sspstrong uwtable
define internal ptr @node_new_internal(ptr noundef %0, i32 noundef %1, i64 noundef %2, i64 noundef %3) #0 {
  %5 = alloca ptr, align 8
  %6 = alloca i32, align 4
  %7 = alloca i64, align 8
  %8 = alloca i64, align 8
  %9 = alloca ptr, align 8
  store ptr %0, ptr %5, align 8, !tbaa !6
  store i32 %1, ptr %6, align 4, !tbaa !14
  store i64 %2, ptr %7, align 8, !tbaa !16
  store i64 %3, ptr %8, align 8, !tbaa !16
  call void @llvm.lifetime.start.p0(i64 8, ptr %9) #25
  %10 = load ptr, ptr %5, align 8, !tbaa !6
  %11 = getelementptr inbounds nuw %struct.parser_params, ptr %10, i32 0, i32 25
  %12 = load ptr, ptr %11, align 8, !tbaa !172
  %13 = load i32, ptr %6, align 4, !tbaa !14
  %14 = load i64, ptr %7, align 8, !tbaa !16
  %15 = load i64, ptr %8, align 8, !tbaa !16
  %16 = call ptr @rb_ast_newnode(ptr noundef %12, i32 noundef %13, i64 noundef %14, i64 noundef %15)
  store ptr %16, ptr %9, align 8, !tbaa !33
  %17 = load ptr, ptr %9, align 8, !tbaa !33
  %18 = load i32, ptr %6, align 4, !tbaa !14
  call void @rb_node_init(ptr noundef %17, i32 noundef %18)
  %19 = load ptr, ptr %9, align 8, !tbaa !33
  call void @llvm.lifetime.end.p0(i64 8, ptr %9) #25
  ret ptr %19
}

; Function Attrs: inlinehint nounwind sspstrong uwtable
define internal void @nd_set_line(ptr noundef %0, i64 noundef %1) #6 {
  %3 = alloca ptr, align 8
  %4 = alloca i64, align 8
  store ptr %0, ptr %3, align 8, !tbaa !33
  store i64 %1, ptr %4, align 8, !tbaa !16
  %5 = load ptr, ptr %3, align 8, !tbaa !33
  %6 = getelementptr inbounds nuw %struct.RNode, ptr %5, i32 0, i32 0
  %7 = load i64, ptr %6, align 8, !tbaa !175
  %8 = and i64 %7, 32767
  store i64 %8, ptr %6, align 8, !tbaa !175
  %9 = load i64, ptr %4, align 8, !tbaa !16
  %10 = and i64 %9, 562949953421311
  %11 = shl i64 %10, 15
  %12 = load ptr, ptr %3, align 8, !tbaa !33
  %13 = getelementptr inbounds nuw %struct.RNode, ptr %12, i32 0, i32 0
  %14 = load i64, ptr %13, align 8, !tbaa !175
  %15 = or i64 %14, %11
  store i64 %15, ptr %13, align 8, !tbaa !175
  ret void
}

; Function Attrs: inlinehint nounwind sspstrong uwtable
define internal i32 @nd_line(ptr noundef %0) #6 {
  %2 = alloca i32, align 4
  %3 = alloca ptr, align 8
  %4 = alloca i64, align 8
  store ptr %0, ptr %3, align 8, !tbaa !33
  %5 = load ptr, ptr %3, align 8, !tbaa !33
  %6 = icmp ne ptr %5, null
  br i1 %6, label %8, label %7

7:                                                ; preds = %1
  store i32 -1, ptr %2, align 4
  br label %15

8:                                                ; preds = %1
  call void @llvm.lifetime.start.p0(i64 8, ptr %4) #25
  %9 = load ptr, ptr %3, align 8, !tbaa !33
  %10 = getelementptr inbounds nuw %struct.RNode, ptr %9, i32 0, i32 0
  %11 = load i64, ptr %10, align 8, !tbaa !175
  store i64 %11, ptr %4, align 8, !tbaa !16
  %12 = load i64, ptr %4, align 8, !tbaa !16
  %13 = ashr i64 %12, 15
  %14 = trunc i64 %13 to i32
  store i32 %14, ptr %2, align 4
  call void @llvm.lifetime.end.p0(i64 8, ptr %4) #25
  br label %15

15:                                               ; preds = %8, %7
  %16 = load i32, ptr %2, align 4
  ret i32 %16
}

; Function Attrs: nounwind sspstrong uwtable
define internal ptr @node_newnode(ptr noundef %0, i32 noundef %1, i64 noundef %2, i64 noundef %3, ptr noundef %4) #0 {
  %6 = alloca ptr, align 8
  %7 = alloca i32, align 4
  %8 = alloca i64, align 8
  %9 = alloca i64, align 8
  %10 = alloca ptr, align 8
  %11 = alloca ptr, align 8
  store ptr %0, ptr %6, align 8, !tbaa !6
  store i32 %1, ptr %7, align 4, !tbaa !14
  store i64 %2, ptr %8, align 8, !tbaa !16
  store i64 %3, ptr %9, align 8, !tbaa !16
  store ptr %4, ptr %10, align 8, !tbaa !22
  call void @llvm.lifetime.start.p0(i64 8, ptr %11) #25
  %12 = load ptr, ptr %6, align 8, !tbaa !6
  %13 = load i32, ptr %7, align 4, !tbaa !14
  %14 = load i64, ptr %8, align 8, !tbaa !16
  %15 = load i64, ptr %9, align 8, !tbaa !16
  %16 = call ptr @node_new_internal(ptr noundef %12, i32 noundef %13, i64 noundef %14, i64 noundef %15)
  store ptr %16, ptr %11, align 8, !tbaa !33
  %17 = load ptr, ptr %11, align 8, !tbaa !33
  %18 = load ptr, ptr %10, align 8, !tbaa !22
  %19 = call ptr @nd_set_loc(ptr noundef %17, ptr noundef %18)
  %20 = load ptr, ptr %6, align 8, !tbaa !6
  %21 = call i32 @parser_get_node_id(ptr noundef %20)
  %22 = load ptr, ptr %11, align 8, !tbaa !33
  %23 = getelementptr inbounds nuw %struct.RNode, ptr %22, i32 0, i32 2
  store i32 %21, ptr %23, align 8, !tbaa !798
  %24 = load ptr, ptr %11, align 8, !tbaa !33
  call void @llvm.lifetime.end.p0(i64 8, ptr %11) #25
  ret ptr %24
}

; Function Attrs: nounwind sspstrong uwtable
define internal void @fixpos(ptr noundef %0, ptr noundef %1) #0 {
  %3 = alloca ptr, align 8
  %4 = alloca ptr, align 8
  store ptr %0, ptr %3, align 8, !tbaa !33
  store ptr %1, ptr %4, align 8, !tbaa !33
  %5 = load ptr, ptr %3, align 8, !tbaa !33
  %6 = icmp ne ptr %5, null
  br i1 %6, label %8, label %7

7:                                                ; preds = %2
  br label %17

8:                                                ; preds = %2
  %9 = load ptr, ptr %4, align 8, !tbaa !33
  %10 = icmp ne ptr %9, null
  br i1 %10, label %12, label %11

11:                                               ; preds = %8
  br label %17

12:                                               ; preds = %8
  %13 = load ptr, ptr %3, align 8, !tbaa !33
  %14 = load ptr, ptr %4, align 8, !tbaa !33
  %15 = call i32 @nd_line(ptr noundef %14)
  %16 = sext i32 %15 to i64
  call void @nd_set_line(ptr noundef %13, i64 noundef %16)
  br label %17

17:                                               ; preds = %12, %11, %7
  ret void
}

; Function Attrs: nounwind sspstrong uwtable
define internal ptr @rb_node_op_asgn2_new(ptr noundef %0, ptr noundef %1, ptr noundef %2, i64 noundef %3, i64 noundef %4, i1 noundef zeroext %5, ptr noundef %6, ptr noundef %7, ptr noundef %8, ptr noundef %9) #0 {
  %11 = alloca ptr, align 8
  %12 = alloca ptr, align 8
  %13 = alloca ptr, align 8
  %14 = alloca i64, align 8
  %15 = alloca i64, align 8
  %16 = alloca i8, align 1
  %17 = alloca ptr, align 8
  %18 = alloca ptr, align 8
  %19 = alloca ptr, align 8
  %20 = alloca ptr, align 8
  %21 = alloca ptr, align 8
  store ptr %0, ptr %11, align 8, !tbaa !6
  store ptr %1, ptr %12, align 8, !tbaa !33
  store ptr %2, ptr %13, align 8, !tbaa !33
  store i64 %3, ptr %14, align 8, !tbaa !16
  store i64 %4, ptr %15, align 8, !tbaa !16
  %22 = zext i1 %5 to i8
  store i8 %22, ptr %16, align 1, !tbaa !217
  store ptr %6, ptr %17, align 8, !tbaa !22
  store ptr %7, ptr %18, align 8, !tbaa !22
  store ptr %8, ptr %19, align 8, !tbaa !22
  store ptr %9, ptr %20, align 8, !tbaa !22
  call void @llvm.lifetime.start.p0(i64 8, ptr %21) #25
  %23 = load ptr, ptr %11, align 8, !tbaa !6
  %24 = load ptr, ptr %17, align 8, !tbaa !22
  %25 = call ptr @node_newnode(ptr noundef %23, i32 noundef 32, i64 noundef 120, i64 noundef 8, ptr noundef %24)
  store ptr %25, ptr %21, align 8, !tbaa !960
  %26 = load ptr, ptr %12, align 8, !tbaa !33
  %27 = load ptr, ptr %21, align 8, !tbaa !960
  %28 = getelementptr inbounds nuw %struct.RNode_OP_ASGN2, ptr %27, i32 0, i32 1
  store ptr %26, ptr %28, align 8, !tbaa !962
  %29 = load ptr, ptr %13, align 8, !tbaa !33
  %30 = load ptr, ptr %21, align 8, !tbaa !960
  %31 = getelementptr inbounds nuw %struct.RNode_OP_ASGN2, ptr %30, i32 0, i32 2
  store ptr %29, ptr %31, align 8, !tbaa !964
  %32 = load i64, ptr %14, align 8, !tbaa !16
  %33 = load ptr, ptr %21, align 8, !tbaa !960
  %34 = getelementptr inbounds nuw %struct.RNode_OP_ASGN2, ptr %33, i32 0, i32 3
  store i64 %32, ptr %34, align 8, !tbaa !965
  %35 = load i64, ptr %15, align 8, !tbaa !16
  %36 = load ptr, ptr %21, align 8, !tbaa !960
  %37 = getelementptr inbounds nuw %struct.RNode_OP_ASGN2, ptr %36, i32 0, i32 4
  store i64 %35, ptr %37, align 8, !tbaa !966
  %38 = load i8, ptr %16, align 1, !tbaa !217, !range !219, !noundef !220
  %39 = trunc i8 %38 to i1
  %40 = load ptr, ptr %21, align 8, !tbaa !960
  %41 = getelementptr inbounds nuw %struct.RNode_OP_ASGN2, ptr %40, i32 0, i32 5
  %42 = zext i1 %39 to i8
  store i8 %42, ptr %41, align 8, !tbaa !967
  %43 = load ptr, ptr %21, align 8, !tbaa !960
  %44 = getelementptr inbounds nuw %struct.RNode_OP_ASGN2, ptr %43, i32 0, i32 6
  %45 = load ptr, ptr %18, align 8, !tbaa !22
  call void @llvm.memcpy.p0.p0.i64(ptr align 4 %44, ptr align 4 %45, i64 16, i1 false), !tbaa.struct !13
  %46 = load ptr, ptr %21, align 8, !tbaa !960
  %47 = getelementptr inbounds nuw %struct.RNode_OP_ASGN2, ptr %46, i32 0, i32 7
  %48 = load ptr, ptr %19, align 8, !tbaa !22
  call void @llvm.memcpy.p0.p0.i64(ptr align 4 %47, ptr align 4 %48, i64 16, i1 false), !tbaa.struct !13
  %49 = load ptr, ptr %21, align 8, !tbaa !960
  %50 = getelementptr inbounds nuw %struct.RNode_OP_ASGN2, ptr %49, i32 0, i32 8
  %51 = load ptr, ptr %20, align 8, !tbaa !22
  call void @llvm.memcpy.p0.p0.i64(ptr align 4 %50, ptr align 4 %51, i64 16, i1 false), !tbaa.struct !13
  %52 = load ptr, ptr %21, align 8, !tbaa !960
  call void @llvm.lifetime.end.p0(i64 8, ptr %21) #25
  ret ptr %52
}

; Function Attrs: nounwind sspstrong uwtable
define internal ptr @new_attr_op_assign(ptr noundef %0, ptr noundef %1, i64 noundef %2, i64 noundef %3, i64 noundef %4, ptr noundef %5, ptr noundef %6, ptr noundef %7, ptr noundef %8, ptr noundef %9) #0 {
  %11 = alloca ptr, align 8
  %12 = alloca ptr, align 8
  %13 = alloca i64, align 8
  %14 = alloca i64, align 8
  %15 = alloca i64, align 8
  %16 = alloca ptr, align 8
  %17 = alloca ptr, align 8
  %18 = alloca ptr, align 8
  %19 = alloca ptr, align 8
  %20 = alloca ptr, align 8
  %21 = alloca ptr, align 8
  store ptr %0, ptr %11, align 8, !tbaa !6
  store ptr %1, ptr %12, align 8, !tbaa !33
  store i64 %2, ptr %13, align 8, !tbaa !16
  store i64 %3, ptr %14, align 8, !tbaa !16
  store i64 %4, ptr %15, align 8, !tbaa !16
  store ptr %5, ptr %16, align 8, !tbaa !33
  store ptr %6, ptr %17, align 8, !tbaa !22
  store ptr %7, ptr %18, align 8, !tbaa !22
  store ptr %8, ptr %19, align 8, !tbaa !22
  store ptr %9, ptr %20, align 8, !tbaa !22
  call void @llvm.lifetime.start.p0(i64 8, ptr %21) #25
  %22 = load ptr, ptr %11, align 8, !tbaa !6
  %23 = load ptr, ptr %12, align 8, !tbaa !33
  %24 = load ptr, ptr %16, align 8, !tbaa !33
  %25 = load i64, ptr %14, align 8, !tbaa !16
  %26 = load i64, ptr %15, align 8, !tbaa !16
  %27 = load i64, ptr %13, align 8, !tbaa !16
  %28 = icmp eq i64 %27, 150
  %29 = load ptr, ptr %17, align 8, !tbaa !22
  %30 = load ptr, ptr %18, align 8, !tbaa !22
  %31 = load ptr, ptr %19, align 8, !tbaa !22
  %32 = load ptr, ptr %20, align 8, !tbaa !22
  %33 = call ptr @rb_node_op_asgn2_new(ptr noundef %22, ptr noundef %23, ptr noundef %24, i64 noundef %25, i64 noundef %26, i1 noundef zeroext %28, ptr noundef %29, ptr noundef %30, ptr noundef %31, ptr noundef %32)
  store ptr %33, ptr %21, align 8, !tbaa !33
  %34 = load ptr, ptr %21, align 8, !tbaa !33
  %35 = load ptr, ptr %12, align 8, !tbaa !33
  call void @fixpos(ptr noundef %34, ptr noundef %35)
  %36 = load ptr, ptr %21, align 8, !tbaa !33
  call void @llvm.lifetime.end.p0(i64 8, ptr %21) #25
  ret ptr %36
}