; Function Attrs: nounwind sspstrong uwtable
define internal fastcc noundef ptr @new_attr_op_assign(ptr noundef captures(none) %0, ptr noundef %1, i64 noundef %2, i64 noundef %3, i64 noundef %4, ptr noundef %5, ptr noundef nonnull readonly captures(none) %6, ptr noundef nonnull readonly captures(none) %7, ptr noundef nonnull readonly captures(none) %8, ptr noundef nonnull readonly captures(none) %9) unnamed_addr #0 {
  %11 = icmp eq i64 %2, 150
  %12 = zext i1 %11 to i8
  %13 = getelementptr i8, ptr %0, i64 288
  %.val.i.i = load ptr, ptr %13, align 8, !tbaa !120
  %14 = tail call ptr @rb_ast_newnode(ptr noundef %.val.i.i, i32 noundef range(i32 0, 115) 32, i64 noundef range(i64 32, 129) 120, i64 noundef 8) #31
  tail call void @rb_node_init(ptr noundef %14, i32 noundef range(i32 0, 115) 32) #31
  %15 = getelementptr inbounds nuw i8, ptr %14, i64 8
  tail call void @llvm.memcpy.p0.p0.i64(ptr noundef nonnull align 8 dereferenceable(16) %15, ptr noundef nonnull readonly align 4 dereferenceable(16) %6, i64 16, i1 false), !tbaa.struct !11
  %16 = load i32, ptr %6, align 4, !tbaa !51
  %17 = sext i32 %16 to i64
  %18 = load i64, ptr %14, align 8, !tbaa !61
  %19 = and i64 %18, 32767
  %20 = shl nsw i64 %17, 15
  %21 = or disjoint i64 %19, %20
  store i64 %21, ptr %14, align 8, !tbaa !61
  %22 = getelementptr inbounds nuw i8, ptr %0, i64 296
  %23 = load i32, ptr %22, align 8, !tbaa !192
  %24 = add nsw i32 %23, 1
  store i32 %24, ptr %22, align 8, !tbaa !192
  %25 = getelementptr inbounds nuw i8, ptr %14, i64 24
  store i32 %23, ptr %25, align 8, !tbaa !193
  %26 = getelementptr inbounds nuw i8, ptr %14, i64 32
  store ptr %1, ptr %26, align 8, !tbaa !270
  %27 = getelementptr inbounds nuw i8, ptr %14, i64 40
  store ptr %5, ptr %27, align 8, !tbaa !273
  %28 = getelementptr inbounds nuw i8, ptr %14, i64 48
  store i64 %3, ptr %28, align 8, !tbaa !274
  %29 = getelementptr inbounds nuw i8, ptr %14, i64 56
  store i64 %4, ptr %29, align 8, !tbaa !275
  %30 = getelementptr inbounds nuw i8, ptr %14, i64 64
  store i8 %12, ptr %30, align 8, !tbaa !276
  %31 = getelementptr inbounds nuw i8, ptr %14, i64 68
  tail call void @llvm.memcpy.p0.p0.i64(ptr noundef nonnull align 4 dereferenceable(16) %31, ptr noundef nonnull readonly align 4 dereferenceable(16) %7, i64 16, i1 false), !tbaa.struct !11
  %32 = getelementptr inbounds nuw i8, ptr %14, i64 84
  tail call void @llvm.memcpy.p0.p0.i64(ptr noundef nonnull align 4 dereferenceable(16) %32, ptr noundef nonnull readonly align 4 dereferenceable(16) %8, i64 16, i1 false), !tbaa.struct !11
  %33 = getelementptr inbounds nuw i8, ptr %14, i64 100
  tail call void @llvm.memcpy.p0.p0.i64(ptr noundef nonnull align 4 dereferenceable(16) %33, ptr noundef nonnull readonly align 4 dereferenceable(16) %9, i64 16, i1 false), !tbaa.struct !11
  %.not = icmp eq ptr %1, null
  br i1 %.not, label %fixpos.exit, label %nd_line.exit.i

nd_line.exit.i:                                   ; preds = %10
  %34 = load i64, ptr %1, align 8, !tbaa !61
  %35 = shl i64 %34, 17
  %36 = ashr exact i64 %35, 17
  %37 = and i64 %36, -32768
  %38 = or disjoint i64 %37, %19
  store i64 %38, ptr %14, align 8, !tbaa !61
  br label %fixpos.exit

fixpos.exit:                                      ; preds = %10, %nd_line.exit.i
  ret ptr %14
}